; Function Attrs: mustprogress nounwind uwtable
define dso_local void @_ZN4llvm17MachineBasicBlock14addPredecessorEPS0_(ptr noundef nonnull align 8 dereferenceable(288) %0, ptr noundef %1) local_unnamed_addr #0 align 2 {
  %3 = getelementptr inbounds nuw i8, ptr %0, i64 64
  %4 = tail call noundef i64 @_ZNK4llvm15SmallVectorBaseIjE4sizeEv(ptr noundef nonnull align 8 dereferenceable(16) %3) #29
  %5 = add i64 %4, 1
  %6 = tail call noundef i64 @_ZNK4llvm15SmallVectorBaseIjE8capacityEv(ptr noundef nonnull align 8 dereferenceable(16) %3) #29
  %.not.i.i.i = icmp ugt i64 %5, %6
  br i1 %.not.i.i.i, label %7, label %_ZN4llvm23SmallVectorTemplateBaseIPNS_17MachineBasicBlockELb1EE9push_backES2_.exit

7:                                                ; preds = %2
  %8 = getelementptr inbounds nuw i8, ptr %0, i64 80
  tail call void @_ZN4llvm15SmallVectorBaseIjE8grow_podEPvmm(ptr noundef nonnull align 8 dereferenceable(16) %3, ptr noundef nonnull %8, i64 noundef %5, i64 noundef 8) #29
  br label %_ZN4llvm23SmallVectorTemplateBaseIPNS_17MachineBasicBlockELb1EE9push_backES2_.exit

_ZN4llvm23SmallVectorTemplateBaseIPNS_17MachineBasicBlockELb1EE9push_backES2_.exit: ; preds = %2, %7
  %9 = load ptr, ptr %3, align 8
  %10 = tail call noundef i64 @_ZNK4llvm15SmallVectorBaseIjE4sizeEv(ptr noundef nonnull align 8 dereferenceable(16) %3) #29
  %11 = getelementptr inbounds ptr, ptr %9, i64 %10
  %12 = ptrtoint ptr %1 to i64
  store i64 %12, ptr %11, align 1
  %13 = tail call noundef i64 @_ZNK4llvm15SmallVectorBaseIjE4sizeEv(ptr noundef nonnull align 8 dereferenceable(16) %3) #29
  %14 = add i64 %13, 1
  tail call void @_ZN4llvm15SmallVectorBaseIjE8set_sizeEm(ptr noundef nonnull align 8 dereferenceable(16) %3, i64 noundef %14) #29
  ret void
}